target datalayout = "e-m:e-p270:32:32-p271:32:32-p272:64:64-i64:64-i128:128-f80:128-n8:16:32:64-S128"
target triple = "x86_64-pc-linux-gnu"

%struct.FLAC__StreamMetadata = type { i32, i32, i32, %union.anon }
%union.anon = type { %struct.FLAC__StreamMetadata_CueSheet }
%struct.FLAC__StreamMetadata_CueSheet = type { [129 x i8], i64, i32, i32, ptr }

; Function Attrs: alwaysinline nounwind
define internal ptr @memcpy.inline(ptr noalias nonnull %0, ptr noalias nonnull %1, i64 %2) #5 {
  %4 = alloca ptr, align 8
  %5 = alloca ptr, align 8
  %6 = alloca i64, align 8
  store ptr %0, ptr %4, align 8, !tbaa !27
  store ptr %1, ptr %5, align 8, !tbaa !27
  store i64 %2, ptr %6, align 8, !tbaa !28
  %7 = load ptr, ptr %4, align 8, !tbaa !27
  %8 = load ptr, ptr %5, align 8, !tbaa !27
  %9 = load i64, ptr %6, align 8, !tbaa !28
  %10 = load ptr, ptr %4, align 8, !tbaa !27
  %11 = call i64 @llvm.objectsize.i64.p0(ptr %10, i1 false, i1 true, i1 false)
  %12 = call ptr @__memcpy_chk(ptr noundef %7, ptr noundef %8, i64 noundef %9, i64 noundef %11) #12
  ret ptr %12
}

; Function Attrs: inlinehint nounwind sspstrong uwtable
define internal ptr @safe_malloc_(i64 noundef %0) #9 {
  %2 = alloca i64, align 8
  store i64 %0, ptr %2, align 8, !tbaa !28
  %3 = load i64, ptr %2, align 8, !tbaa !28
  %4 = icmp ne i64 %3, 0
  br i1 %4, label %8, label %5

5:                                                ; preds = %1
  %6 = load i64, ptr %2, align 8, !tbaa !28
  %7 = add i64 %6, 1
  store i64 %7, ptr %2, align 8, !tbaa !28
  br label %8

8:                                                ; preds = %5, %1
  %9 = load i64, ptr %2, align 8, !tbaa !28
  %10 = call noalias ptr @malloc(i64 noundef %9) #16
  ret ptr %10
}

; Function Attrs: nounwind sspstrong uwtable
define ptr @FLAC__metadata_object_get_raw(ptr noundef %0) #0 {
  %2 = alloca ptr, align 8
  %3 = alloca ptr, align 8
  %4 = alloca ptr, align 8
  %5 = alloca ptr, align 8
  %6 = alloca ptr, align 8
  %7 = alloca i64, align 8
  %8 = alloca i32, align 4
  store ptr %0, ptr %3, align 8, !tbaa !7
  call void @llvm.lifetime.start.p0(i64 8, ptr %4) #12
  call void @llvm.lifetime.start.p0(i64 8, ptr %5) #12
  call void @llvm.lifetime.start.p0(i64 8, ptr %6) #12
  call void @llvm.lifetime.start.p0(i64 8, ptr %7) #12
  %9 = call ptr @FLAC__bitwriter_new()
  store ptr %9, ptr %4, align 8, !tbaa !108
  %10 = icmp eq ptr %9, null
  br i1 %10, label %11, label %12

11:                                               ; preds = %1
  store ptr null, ptr %2, align 8
  store i32 1, ptr %8, align 4
  br label %55

12:                                               ; preds = %1
  %13 = load ptr, ptr %4, align 8, !tbaa !108
  %14 = call i32 @FLAC__bitwriter_init(ptr noundef %13)
  %15 = icmp ne i32 %14, 0
  br i1 %15, label %18, label %16

16:                                               ; preds = %12
  %17 = load ptr, ptr %4, align 8, !tbaa !108
  call void @FLAC__bitwriter_delete(ptr noundef %17)
  store ptr null, ptr %2, align 8
  store i32 1, ptr %8, align 4
  br label %55

18:                                               ; preds = %12
  %19 = load ptr, ptr %3, align 8, !tbaa !7
  %20 = load ptr, ptr %4, align 8, !tbaa !108
  %21 = call i32 @FLAC__add_metadata_block(ptr noundef %19, ptr noundef %20, i32 noundef 0)
  %22 = icmp ne i32 %21, 0
  br i1 %22, label %25, label %23

23:                                               ; preds = %18
  %24 = load ptr, ptr %4, align 8, !tbaa !108
  call void @FLAC__bitwriter_delete(ptr noundef %24)
  store ptr null, ptr %2, align 8
  store i32 1, ptr %8, align 4
  br label %55

25:                                               ; preds = %18
  %26 = load ptr, ptr %4, align 8, !tbaa !108
  %27 = call i32 @FLAC__bitwriter_get_buffer(ptr noundef %26, ptr noundef %5, ptr noundef %7)
  %28 = icmp ne i32 %27, 0
  br i1 %28, label %31, label %29

29:                                               ; preds = %25
  %30 = load ptr, ptr %4, align 8, !tbaa !108
  call void @FLAC__bitwriter_delete(ptr noundef %30)
  store ptr null, ptr %2, align 8
  store i32 1, ptr %8, align 4
  br label %55

31:                                               ; preds = %25
  %32 = load i64, ptr %7, align 8, !tbaa !28
  %33 = load ptr, ptr %3, align 8, !tbaa !7
  %34 = getelementptr inbounds nuw %struct.FLAC__StreamMetadata, ptr %33, i32 0, i32 2
  %35 = load i32, ptr %34, align 8, !tbaa !13
  %36 = add i32 %35, 4
  %37 = zext i32 %36 to i64
  %38 = icmp ne i64 %32, %37
  br i1 %38, label %39, label %41

39:                                               ; preds = %31
  %40 = load ptr, ptr %4, align 8, !tbaa !108
  call void @FLAC__bitwriter_delete(ptr noundef %40)
  store ptr null, ptr %2, align 8
  store i32 1, ptr %8, align 4
  br label %55

41:                                               ; preds = %31
  %42 = load i64, ptr %7, align 8, !tbaa !28
  %43 = call ptr @safe_malloc_(i64 noundef %42)
  store ptr %43, ptr %6, align 8, !tbaa !14
  %44 = load ptr, ptr %6, align 8, !tbaa !14
  %45 = icmp eq ptr %44, null
  br i1 %45, label %46, label %48

46:                                               ; preds = %41
  %47 = load ptr, ptr %4, align 8, !tbaa !108
  call void @FLAC__bitwriter_delete(ptr noundef %47)
  store ptr null, ptr %2, align 8
  store i32 1, ptr %8, align 4
  br label %55

48:                                               ; preds = %41
  %49 = load ptr, ptr %6, align 8, !tbaa !14
  %50 = load ptr, ptr %5, align 8, !tbaa !14
  %51 = load i64, ptr %7, align 8, !tbaa !28
  %52 = call ptr @memcpy.inline(ptr noundef %49, ptr noundef %50, i64 noundef %51) #12
  %53 = load ptr, ptr %4, align 8, !tbaa !108
  call void @FLAC__bitwriter_delete(ptr noundef %53)
  %54 = load ptr, ptr %6, align 8, !tbaa !14
  store ptr %54, ptr %2, align 8
  store i32 1, ptr %8, align 4
  br label %55

55:                                               ; preds = %48, %46, %39, %29, %23, %16, %11
  call void @llvm.lifetime.end.p0(i64 8, ptr %7) #12
  call void @llvm.lifetime.end.p0(i64 8, ptr %6) #12
  call void @llvm.lifetime.end.p0(i64 8, ptr %5) #12
  call void @llvm.lifetime.end.p0(i64 8, ptr %4) #12
  %56 = load ptr, ptr %2, align 8
  ret ptr %56
}