; Function Attrs: nounwind sspstrong uwtable
define noundef ptr @FLAC__metadata_object_get_raw(ptr noundef %0) local_unnamed_addr #0 {
  %2 = alloca ptr, align 8
  %3 = alloca i64, align 8
  call void @llvm.lifetime.start.p0(i64 8, ptr nonnull %2) #31
  call void @llvm.lifetime.start.p0(i64 8, ptr nonnull %3) #31
  %4 = tail call ptr @FLAC__bitwriter_new() #31
  %5 = icmp eq ptr %4, null
  br i1 %5, label %28, label %6

6:                                                ; preds = %1
  %7 = tail call i32 @FLAC__bitwriter_init(ptr noundef nonnull %4) #31
  %.not = icmp eq i32 %7, 0
  br i1 %.not, label %8, label %9

8:                                                ; preds = %6
  tail call void @FLAC__bitwriter_delete(ptr noundef nonnull %4) #31
  br label %28

9:                                                ; preds = %6
  %10 = tail call i32 @FLAC__add_metadata_block(ptr noundef %0, ptr noundef nonnull %4, i32 noundef 0) #31
  %.not18 = icmp eq i32 %10, 0
  br i1 %.not18, label %11, label %12

11:                                               ; preds = %9
  tail call void @FLAC__bitwriter_delete(ptr noundef nonnull %4) #31
  br label %28

12:                                               ; preds = %9
  %13 = call i32 @FLAC__bitwriter_get_buffer(ptr noundef nonnull %4, ptr noundef nonnull %2, ptr noundef nonnull %3) #31
  %.not19 = icmp eq i32 %13, 0
  br i1 %.not19, label %14, label %15

14:                                               ; preds = %12
  call void @FLAC__bitwriter_delete(ptr noundef nonnull %4) #31
  br label %28

15:                                               ; preds = %12
  %16 = load i64, ptr %3, align 8, !tbaa !76
  %17 = getelementptr inbounds nuw i8, ptr %0, i64 8
  %18 = load i32, ptr %17, align 8, !tbaa !8
  %19 = add i32 %18, 4
  %20 = zext i32 %19 to i64
  %.not20 = icmp eq i64 %16, %20
  br i1 %.not20, label %22, label %21

21:                                               ; preds = %15
  call void @FLAC__bitwriter_delete(ptr noundef nonnull %4) #31
  br label %28

22:                                               ; preds = %15
  %spec.select.i = call i64 @llvm.umax.i64(i64 %16, i64 1)
  %23 = call noalias noundef ptr @malloc(i64 noundef %spec.select.i) #30
  %24 = icmp eq ptr %23, null
  br i1 %24, label %25, label %26

25:                                               ; preds = %22
  call void @FLAC__bitwriter_delete(ptr noundef nonnull %4) #31
  br label %28

26:                                               ; preds = %22
  %27 = load ptr, ptr %2, align 8, !tbaa !10
  call void @llvm.memcpy.p0.p0.i64(ptr noundef nonnull align 1 %23, ptr noundef nonnull align 1 %27, i64 noundef %16, i1 noundef false) #31
  call void @FLAC__bitwriter_delete(ptr noundef nonnull %4) #31
  br label %28

28:                                               ; preds = %1, %26, %25, %21, %14, %11, %8
  %.0 = phi ptr [ null, %21 ], [ null, %25 ], [ %23, %26 ], [ null, %14 ], [ null, %11 ], [ null, %8 ], [ null, %1 ]
  call void @llvm.lifetime.end.p0(i64 8, ptr nonnull %3) #31
  call void @llvm.lifetime.end.p0(i64 8, ptr nonnull %2) #31
  ret ptr %.0
}